; Function Attrs: mustprogress nounwind uwtable
define noundef range(i32 0, 65536) i32 @_ZN11OpenImageIO6v3_1_07Sysutil13terminal_rowsEv() local_unnamed_addr #11 {
  %1 = alloca %struct.winsize, align 2
  call void @llvm.lifetime.start.p0(i64 8, ptr nonnull %1) #32
  %2 = call i32 (i32, i64, ...) @ioctl(i32 noundef 0, i64 noundef 21523, ptr noundef nonnull %1) #32
  %3 = load i16, ptr %1, align 2, !tbaa !26
  %4 = zext i16 %3 to i32
  call void @llvm.lifetime.end.p0(i64 8, ptr nonnull %1) #32
  ret i32 %4
}